; Function Attrs: nounwind uwtable
define ptr @l_Std_DHashMap_Internal_AssocList_foldlM___at_Lean_Compiler_LCNF_LCtx_toLocalContext___spec__2(ptr noundef %0, ptr noundef %1) local_unnamed_addr #0 {
  br label %3

3:                                                ; preds = %lean_alloc_ctor.exit, %2
  %.015 = phi ptr [ %1, %2 ], [ %20, %lean_alloc_ctor.exit ]
  %.0 = phi ptr [ %0, %2 ], [ %43, %lean_alloc_ctor.exit ]
  %4 = ptrtoint ptr %.015 to i64
  %5 = and i64 %4, 1
  %.not.i = icmp eq i64 %5, 0
  br i1 %.not.i, label %9, label %6

6:                                                ; preds = %3
  %7 = lshr i64 %4, 1
  %8 = trunc i64 %7 to i32
  br label %lean_obj_tag.exit

9:                                                ; preds = %3
  %10 = getelementptr i8, ptr %.015, i64 4
  %.val.i = load i32, ptr %10, align 4
  %11 = lshr i32 %.val.i, 24
  br label %lean_obj_tag.exit

lean_obj_tag.exit:                                ; preds = %6, %9
  %.0.i = phi i32 [ %8, %6 ], [ %11, %9 ]
  %12 = icmp eq i32 %.0.i, 0
  br i1 %12, label %13, label %14

13:                                               ; preds = %lean_obj_tag.exit
  ret ptr %.0

14:                                               ; preds = %lean_obj_tag.exit
  %15 = getelementptr inbounds nuw i8, ptr %.015, i64 8
  %16 = load ptr, ptr %15, align 8, !tbaa !4
  %17 = getelementptr inbounds nuw i8, ptr %.015, i64 16
  %18 = load ptr, ptr %17, align 8, !tbaa !4
  %19 = getelementptr inbounds nuw i8, ptr %.015, i64 24
  %20 = load ptr, ptr %19, align 8, !tbaa !4
  %21 = ptrtoint ptr %18 to i64
  %22 = and i64 %21, 1
  %.not = icmp eq i64 %22, 0
  br i1 %.not, label %23, label %lean_inc.exit16

23:                                               ; preds = %14
  %.val.i17 = load i32, ptr %18, align 4, !tbaa !8
  %24 = icmp sgt i32 %.val.i17, 0
  br i1 %24, label %25, label %27, !prof !13

25:                                               ; preds = %23
  %26 = add nuw i32 %.val.i17, 1
  store i32 %26, ptr %18, align 4, !tbaa !8
  br label %lean_inc.exit16

27:                                               ; preds = %23
  %.not.i18 = icmp eq i32 %.val.i17, 0
  br i1 %.not.i18, label %lean_inc.exit16, label %28

28:                                               ; preds = %27
  tail call void @lean_inc_ref_cold(ptr noundef nonnull %18) #3
  br label %lean_inc.exit16

lean_inc.exit16:                                  ; preds = %28, %27, %25, %14
  %29 = ptrtoint ptr %16 to i64
  %30 = and i64 %29, 1
  %.not22 = icmp eq i64 %30, 0
  br i1 %.not22, label %31, label %lean_inc.exit

31:                                               ; preds = %lean_inc.exit16
  %.val.i19 = load i32, ptr %16, align 4, !tbaa !8
  %32 = icmp sgt i32 %.val.i19, 0
  br i1 %32, label %33, label %35, !prof !13

33:                                               ; preds = %31
  %34 = add nuw i32 %.val.i19, 1
  store i32 %34, ptr %16, align 4, !tbaa !8
  br label %lean_inc.exit

35:                                               ; preds = %31
  %.not.i20 = icmp eq i32 %.val.i19, 0
  br i1 %.not.i20, label %lean_inc.exit, label %36

36:                                               ; preds = %35
  tail call void @lean_inc_ref_cold(ptr noundef nonnull %16) #3
  br label %lean_inc.exit

lean_inc.exit:                                    ; preds = %36, %35, %33, %lean_inc.exit16
  tail call void @lean_inc_heartbeat() #3
  %37 = tail call noalias ptr @mi_malloc_small(i64 noundef 24) #3
  %38 = icmp eq ptr %37, null
  br i1 %38, label %39, label %lean_alloc_ctor.exit

39:                                               ; preds = %lean_inc.exit
  tail call void @lean_internal_panic_out_of_memory() #4
  unreachable

lean_alloc_ctor.exit:                             ; preds = %lean_inc.exit
  %40 = getelementptr inbounds nuw i8, ptr %37, i64 4
  store i32 1, ptr %37, align 4, !tbaa !8
  store i32 131096, ptr %40, align 4
  %41 = getelementptr inbounds nuw i8, ptr %37, i64 8
  store ptr %16, ptr %41, align 8, !tbaa !4
  %42 = getelementptr inbounds nuw i8, ptr %37, i64 16
  store ptr %18, ptr %42, align 8, !tbaa !4
  %43 = tail call ptr @lean_array_push(ptr noundef %.0, ptr noundef nonnull %37) #3
  br label %3
}